target datalayout = "e-m:e-p270:32:32-p271:32:32-p272:64:64-i64:64-i128:128-f80:128-n8:16:32:64-S128"
target triple = "x86_64-pc-linux-gnu"

%"class.icu_77::RBBISymbolTable" = type <{ %"class.icu_77::SymbolTable", ptr, ptr, ptr, %"class.icu_77::UnicodeString", ptr, i32, [4 x i8] }>
%"class.icu_77::SymbolTable" = type { ptr }
%"class.icu_77::UnicodeString" = type { %"class.icu_77::Replaceable", %"union.icu_77::UnicodeString::StackBufferOrFields" }
%"class.icu_77::Replaceable" = type { %"class.icu_77::UObject" }
%"class.icu_77::UObject" = type { ptr }
%"union.icu_77::UnicodeString::StackBufferOrFields" = type { %struct.anon.0, [32 x i8] }
%struct.anon.0 = type { i16, i32, i32, ptr }

; Function Attrs: mustprogress nounwind uwtable
define noundef ptr @_ZNK6icu_7715RBBISymbolTable13lookupMatcherEi(ptr noundef nonnull align 8 dereferenceable(108) %0, i32 noundef %1) unnamed_addr #0 align 2 {
  %3 = alloca ptr, align 8
  %4 = alloca i32, align 4
  %5 = alloca ptr, align 8
  %6 = alloca ptr, align 8
  store ptr %0, ptr %3, align 8, !tbaa !23
  store i32 %1, ptr %4, align 4, !tbaa !14
  %7 = load ptr, ptr %3, align 8
  call void @llvm.lifetime.start.p0(i64 8, ptr %5) #10
  store ptr null, ptr %5, align 8, !tbaa !56
  call void @llvm.lifetime.start.p0(i64 8, ptr %6) #10
  store ptr %7, ptr %6, align 8, !tbaa !23
  %8 = load i32, ptr %4, align 4, !tbaa !14
  %9 = icmp eq i32 %8, 65535
  br i1 %9, label %10, label %15

10:                                               ; preds = %2
  %11 = getelementptr inbounds nuw %"class.icu_77::RBBISymbolTable", ptr %7, i32 0, i32 5
  %12 = load ptr, ptr %11, align 8, !tbaa !40
  store ptr %12, ptr %5, align 8, !tbaa !56
  %13 = load ptr, ptr %6, align 8, !tbaa !23
  %14 = getelementptr inbounds nuw %"class.icu_77::RBBISymbolTable", ptr %13, i32 0, i32 5
  store ptr null, ptr %14, align 8, !tbaa !40
  br label %15

15:                                               ; preds = %10, %2
  %16 = load ptr, ptr %5, align 8, !tbaa !56
  call void @llvm.lifetime.end.p0(i64 8, ptr %6) #10
  call void @llvm.lifetime.end.p0(i64 8, ptr %5) #10
  ret ptr %16
}