; Function Attrs: mustprogress nofree norecurse nosync nounwind willreturn memory(argmem: readwrite) uwtable
define noundef ptr @_ZNK6icu_7715RBBISymbolTable13lookupMatcherEi(ptr noundef nonnull align 8 captures(none) dereferenceable(108) %0, i32 noundef %1) unnamed_addr #10 align 2 {
  %3 = icmp eq i32 %1, 65535
  br i1 %3, label %4, label %7

4:                                                ; preds = %2
  %5 = getelementptr inbounds nuw i8, ptr %0, i64 96
  %6 = load ptr, ptr %5, align 8, !tbaa !29
  store ptr null, ptr %5, align 8, !tbaa !29
  br label %7

7:                                                ; preds = %4, %2
  %.0 = phi ptr [ %6, %4 ], [ null, %2 ]
  ret ptr %.0
}